target datalayout = "e-m:e-p270:32:32-p271:32:32-p272:64:64-i64:64-i128:128-f80:128-n8:16:32:64-S128"
target triple = "x86_64-pc-linux-gnu"

%struct.lxb_html_tokenizer = type { ptr, ptr, ptr, ptr, ptr, ptr, ptr, ptr, ptr, ptr, ptr, ptr, ptr, ptr, ptr, i64, ptr, ptr, ptr, ptr, ptr, i64, i64, ptr, ptr, i64, i64, i32, i32, i8, i32, i32, i8, ptr, i64 }
%struct.lxb_html_token_t = type { ptr, ptr, i64, i64, ptr, ptr, ptr, ptr, ptr, i64, i64, i32 }

; Function Attrs: nounwind uwtable
define internal ptr @lxb_html_tokenizer_state_cdata_section_before(ptr noundef %0, ptr noundef %1, ptr noundef %2) #0 {
  %4 = alloca ptr, align 8
  %5 = alloca ptr, align 8
  %6 = alloca ptr, align 8
  store ptr %0, ptr %4, align 8
  store ptr %1, ptr %5, align 8
  store ptr %2, ptr %6, align 8
  %7 = load ptr, ptr %4, align 8
  %8 = getelementptr inbounds %struct.lxb_html_tokenizer, ptr %7, i32 0, i32 32
  %9 = load i8, ptr %8, align 4
  %10 = trunc i8 %9 to i1
  %11 = zext i1 %10 to i32
  %12 = icmp eq i32 %11, 0
  br i1 %12, label %13, label %40

13:                                               ; preds = %3
  br label %14

14:                                               ; preds = %13
  %15 = load ptr, ptr %4, align 8
  %16 = getelementptr inbounds %struct.lxb_html_tokenizer, ptr %15, i32 0, i32 16
  %17 = load ptr, ptr %16, align 8
  %18 = load ptr, ptr %4, align 8
  %19 = getelementptr inbounds %struct.lxb_html_tokenizer, ptr %18, i32 0, i32 17
  store ptr %17, ptr %19, align 8
  %20 = load ptr, ptr %5, align 8
  %21 = load ptr, ptr %4, align 8
  %22 = getelementptr inbounds %struct.lxb_html_tokenizer, ptr %21, i32 0, i32 8
  %23 = load ptr, ptr %22, align 8
  %24 = getelementptr inbounds %struct.lxb_html_token_t, ptr %23, i32 0, i32 0
  store ptr %20, ptr %24, align 8
  %25 = load ptr, ptr %4, align 8
  %26 = getelementptr inbounds %struct.lxb_html_tokenizer, ptr %25, i32 0, i32 21
  %27 = load i64, ptr %26, align 8
  %28 = load ptr, ptr %4, align 8
  %29 = getelementptr inbounds %struct.lxb_html_tokenizer, ptr %28, i32 0, i32 8
  %30 = load ptr, ptr %29, align 8
  %31 = getelementptr inbounds %struct.lxb_html_token_t, ptr %30, i32 0, i32 2
  store i64 %27, ptr %31, align 8
  %32 = load ptr, ptr %4, align 8
  %33 = getelementptr inbounds %struct.lxb_html_tokenizer, ptr %32, i32 0, i32 22
  %34 = load i64, ptr %33, align 8
  %35 = load ptr, ptr %4, align 8
  %36 = getelementptr inbounds %struct.lxb_html_tokenizer, ptr %35, i32 0, i32 8
  %37 = load ptr, ptr %36, align 8
  %38 = getelementptr inbounds %struct.lxb_html_token_t, ptr %37, i32 0, i32 3
  store i64 %34, ptr %38, align 8
  br label %39

39:                                               ; preds = %14
  br label %69

40:                                               ; preds = %3
  br label %41

41:                                               ; preds = %40
  %42 = load ptr, ptr %4, align 8
  %43 = getelementptr inbounds %struct.lxb_html_tokenizer, ptr %42, i32 0, i32 16
  %44 = load ptr, ptr %43, align 8
  %45 = load ptr, ptr %4, align 8
  %46 = getelementptr inbounds %struct.lxb_html_tokenizer, ptr %45, i32 0, i32 17
  store ptr %44, ptr %46, align 8
  %47 = load ptr, ptr %4, align 8
  %48 = getelementptr inbounds %struct.lxb_html_tokenizer, ptr %47, i32 0, i32 20
  %49 = load ptr, ptr %48, align 8
  %50 = load ptr, ptr %4, align 8
  %51 = getelementptr inbounds %struct.lxb_html_tokenizer, ptr %50, i32 0, i32 8
  %52 = load ptr, ptr %51, align 8
  %53 = getelementptr inbounds %struct.lxb_html_token_t, ptr %52, i32 0, i32 0
  store ptr %49, ptr %53, align 8
  %54 = load ptr, ptr %4, align 8
  %55 = getelementptr inbounds %struct.lxb_html_tokenizer, ptr %54, i32 0, i32 21
  %56 = load i64, ptr %55, align 8
  %57 = load ptr, ptr %4, align 8
  %58 = getelementptr inbounds %struct.lxb_html_tokenizer, ptr %57, i32 0, i32 8
  %59 = load ptr, ptr %58, align 8
  %60 = getelementptr inbounds %struct.lxb_html_token_t, ptr %59, i32 0, i32 2
  store i64 %56, ptr %60, align 8
  %61 = load ptr, ptr %4, align 8
  %62 = getelementptr inbounds %struct.lxb_html_tokenizer, ptr %61, i32 0, i32 22
  %63 = load i64, ptr %62, align 8
  %64 = load ptr, ptr %4, align 8
  %65 = getelementptr inbounds %struct.lxb_html_tokenizer, ptr %64, i32 0, i32 8
  %66 = load ptr, ptr %65, align 8
  %67 = getelementptr inbounds %struct.lxb_html_token_t, ptr %66, i32 0, i32 3
  store i64 %63, ptr %67, align 8
  br label %68

68:                                               ; preds = %41
  br label %69

69:                                               ; preds = %68, %39
  %70 = load ptr, ptr %4, align 8
  %71 = getelementptr inbounds %struct.lxb_html_tokenizer, ptr %70, i32 0, i32 8
  %72 = load ptr, ptr %71, align 8
  %73 = getelementptr inbounds %struct.lxb_html_token_t, ptr %72, i32 0, i32 10
  store i64 2, ptr %73, align 8
  %74 = load ptr, ptr %4, align 8
  %75 = getelementptr inbounds %struct.lxb_html_tokenizer, ptr %74, i32 0, i32 0
  store ptr @lxb_html_tokenizer_state_cdata_section, ptr %75, align 8
  %76 = load ptr, ptr %5, align 8
  ret ptr %76
}