; Function Attrs: mustprogress nofree norecurse nosync nounwind willreturn memory(write, argmem: readwrite, inaccessiblemem: none) uwtable
define internal noundef ptr @lxb_html_tokenizer_state_cdata_section_before(ptr nocapture noundef %0, ptr noundef returned %1, ptr nocapture readnone %2) #0 {
  %4 = getelementptr inbounds i8, ptr %0, i64 236
  %5 = load i8, ptr %4, align 4
  %6 = and i8 %5, 1
  %7 = icmp eq i8 %6, 0
  %8 = getelementptr inbounds i8, ptr %0, i64 128
  %9 = load ptr, ptr %8, align 8
  %10 = getelementptr inbounds i8, ptr %0, i64 136
  store ptr %9, ptr %10, align 8
  br i1 %7, label %14, label %11

11:                                               ; preds = %3
  %12 = getelementptr inbounds i8, ptr %0, i64 160
  %13 = load ptr, ptr %12, align 8
  br label %14

14:                                               ; preds = %3, %11
  %.sink = phi ptr [ %13, %11 ], [ %1, %3 ]
  %15 = getelementptr inbounds i8, ptr %0, i64 64
  %16 = load ptr, ptr %15, align 8
  store ptr %.sink, ptr %16, align 8
  %17 = getelementptr inbounds i8, ptr %0, i64 168
  %18 = load i64, ptr %17, align 8
  %19 = load ptr, ptr %15, align 8
  %20 = getelementptr inbounds i8, ptr %19, i64 16
  store i64 %18, ptr %20, align 8
  %21 = getelementptr inbounds i8, ptr %0, i64 176
  %22 = load i64, ptr %21, align 8
  %23 = load ptr, ptr %15, align 8
  %24 = getelementptr inbounds i8, ptr %23, i64 24
  store i64 %22, ptr %24, align 8
  %25 = getelementptr inbounds i8, ptr %0, i64 64
  %26 = load ptr, ptr %25, align 8
  %27 = getelementptr inbounds i8, ptr %26, i64 80
  store i64 2, ptr %27, align 8
  store ptr @lxb_html_tokenizer_state_cdata_section, ptr %0, align 8
  ret ptr %1
}